Certificate:
    Data:
        Version: 3 (0x2)
        Serial Number:
            a1:4e:60:f6:b6:3f:3f:80:d3:69:cd:7e:06:3d:4a:40
        Signature Algorithm: sha256WithRSAEncryption
        Issuer: CN=UTM_CA
        Validity
            Not Before: Dec 11 07:37:32 2024 GMT
            Not After : Mar 16 07:37:32 2027 GMT
        Subject: C=IN, ST=West Bengal, L=Kolkata, O=Alphabet INC, OU=IT, CN=www.google.com
        Subject Public Key Info:
            Public Key Algorithm: rsaEncryption
                Public-Key: (2048 bit)
                Modulus:
                    00:bb:8d:20:f0:ac:37:32:a9:a4:d2:3f:cb:06:f1:
                    c6:c0:a8:db:2b:ec:a8:a4:92:3b:ba:9f:f9:ca:39:
                    82:47:16:df:7d:8a:cb:9a:cd:45:72:a0:99:3c:67:
                    50:03:ec:47:48:bc:a6:20:67:97:36:fe:d5:de:e3:
                    f8:88:59:12:fb:72:37:18:e9:e0:e7:b9:fc:09:d5:
                    69:61:07:7d:f4:ed:27:90:20:78:fa:77:48:9a:00:
                    2d:69:ac:da:53:4b:84:4a:b0:b8:db:64:29:ea:a5:
                    63:d4:d5:48:69:50:7b:0a:15:f1:5d:69:93:19:05:
                    9f:cf:49:03:0e:cc:04:14:81:92:5f:2e:cd:b8:bc:
                    c3:c7:6c:5b:2f:45:5d:40:46:ad:d5:ce:30:d3:cf:
                    99:0f:2a:f6:39:05:e5:0b:47:8c:c9:72:57:b9:76:
                    0f:ae:35:d8:46:33:f6:10:39:2a:1b:26:58:e2:5a:
                    6f:d6:e6:78:fd:ee:d4:f2:0a:46:0d:06:b3:81:e1:
                    a6:ae:ee:04:11:46:48:c0:d6:fa:d8:73:d2:bc:b9:
                    20:ca:8d:4c:8c:ea:7f:16:38:1c:6f:b3:39:0c:3e:
                    ee:43:e8:01:6c:d8:b5:48:b5:20:af:c1:af:74:eb:
                    1c:cb:32:3c:63:38:c3:ae:5d:54:f9:c3:a4:b6:f4:
                    d2:85
                Exponent: 65537 (0x10001)
        X509v3 extensions:
            X509v3 Basic Constraints: 
                CA:FALSE
            X509v3 Subject Key Identifier: 
                55:B8:D3:83:A5:EC:FC:CB:BE:A0:C9:2A:83:4C:DF:A1:B6:CD:A6:D7
            X509v3 Authority Key Identifier: 
                keyid:25:8A:1B:46:74:71:55:94:F0:61:C8:56:77:4D:72:7F:3F:8D:69:7E
                DirName:/CN=UTM_CA
                serial:13:8D:A3:58:82:09:4A:9D:FE:1C:99:4C:90:5F:B5:8C:9A:3B:6D:EF
            X509v3 Extended Key Usage: 
                TLS Web Server Authentication
            X509v3 Key Usage: 
                Digital Signature, Key Encipherment
            X509v3 Subject Alternative Name: 
                DNS:www.google.com
    Signature Algorithm: sha256WithRSAEncryption
    Signature Value:
        9d:62:aa:bc:77:d1:b6:b1:e1:be:12:4a:e1:f5:1e:8c:20:40:
        45:a1:b7:90:1a:d0:c6:7d:84:5c:de:08:f2:e8:ca:f9:f6:67:
        07:8b:cd:d2:e5:8a:8e:3d:b3:3d:ab:7c:e6:12:bf:af:cc:a0:
        3d:66:b7:c1:b5:b8:44:43:80:d4:0e:dc:7c:2e:39:88:e4:3c:
        ca:ac:c8:65:78:ba:a0:77:cb:84:76:0b:e7:30:be:23:16:38:
        55:d7:b1:bd:0a:ad:db:32:34:fb:d3:a5:e5:91:91:03:57:a7:
        76:72:57:57:fe:d3:33:c3:38:04:47:dd:2e:db:ae:57:4f:76:
        35:22:18:17:06:38:e1:68:18:c1:7d:01:37:e6:39:3b:80:8b:
        27:98:ec:33:f5:84:6a:fb:fb:e7:ea:b5:2c:7e:15:bc:71:c4:
        f6:f3:20:72:ed:f6:1d:c0:68:b3:91:12:90:f3:78:20:a7:ad:
        4b:d7:2a:15:a5:fe:43:96:02:ec:4f:25:9a:26:c5:d7:ee:69:
        1b:48:2f:74:fa:8f:7d:83:32:52:69:75:2a:d7:23:16:87:89:
        44:4f:24:c1:b4:ad:f3:fd:15:d3:35:ec:76:a5:4f:04:0c:87:
        1b:7b:d8:35:8f:2c:95:01:6d:a6:62:82:88:54:c0:b7:ec:72:
        ab:10:24:51
-----BEGIN CERTIFICATE-----
MIIDxzCCAq+gAwIBAgIRAKFOYPa2Pz+A02nNfgY9SkAwDQYJKoZIhvcNAQELBQAw
ETEPMA0GA1UEAwwGVVRNX0NBMB4XDTI0MTIxMTA3MzczMloXDTI3MDMxNjA3Mzcz
MlowcjELMAkGA1UEBhMCSU4xFDASBgNVBAgMC1dlc3QgQmVuZ2FsMRAwDgYDVQQH
DAdLb2xrYXRhMRUwEwYDVQQKDAxBbHBoYWJldCBJTkMxCzAJBgNVBAsMAklUMRcw
FQYDVQQDDA53d3cuZ29vZ2xlLmNvbTCCASIwDQYJKoZIhvcNAQEBBQADggEPADCC
AQoCggEBALuNIPCsNzKppNI/ywbxxsCo2yvsqKSSO7qf+co5gkcW332Ky5rNRXKg
mTxnUAPsR0i8piBnlzb+1d7j+IhZEvtyNxjp4Oe5/AnVaWEHffTtJ5AgePp3SJoA
LWms2lNLhEqwuNtkKeqlY9TVSGlQewoV8V1pkxkFn89JAw7MBBSBkl8uzbi8w8ds
Wy9FXUBGrdXOMNPPmQ8q9jkF5QtHjMlyV7l2D6412EYz9hA5KhsmWOJab9bmeP3u
1PIKRg0Gs4Hhpq7uBBFGSMDW+thz0ry5IMqNTIzqfxY4HG+zOQw+7kPoAWzYtUi1
IK/Br3TrHMsyPGM4w65dVPnDpLb00oUCAwEAAaOBuDCBtTAJBgNVHRMEAjAAMB0G
A1UdDgQWBBRVuNODpez8y76gySqDTN+hts2m1zBMBgNVHSMERTBDgBQlihtGdHFV
lPBhyFZ3TXJ/P41pfqEVpBMwETEPMA0GA1UEAwwGVVRNX0NBghQTjaNYgglKnf4c
mUyQX7WMmjtt7zATBgNVHSUEDDAKBggrBgEFBQcDATALBgNVHQ8EBAMCBaAwGQYD
VR0RBBIwEIIOd3d3Lmdvb2dsZS5jb20wDQYJKoZIhvcNAQELBQADggEBAJ1iqrx3
0bax4b4SSuH1HowgQEWht5Aa0MZ9hFzeCPLoyvn2ZweLzdLlio49sz2rfOYSv6/M
oD1mt8G1uERDgNQO3HwuOYjkPMqsyGV4uqB3y4R2C+cwviMWOFXXsb0KrdsyNPvT
peWRkQNXp3ZyV1f+0zPDOARH3S7brldPdjUiGBcGOOFoGMF9ATfmOTuAiyeY7DP1
hGr7++fqtSx+FbxxxPbzIHLt9h3AaLOREpDzeCCnrUvXKhWl/kOWAuxPJZomxdfu
aRtIL3T6j32DMlJpdSrXIxaHiURPJMG0rfP9FdM17HalTwQMhxt72DWPLJUBbaZi
gohUwLfscqsQJFE=
-----END CERTIFICATE-----
