Certificate:
    Data:
        Version: 3 (0x2)
        Serial Number:
            bf:29:6f:cc:a2:00:03:7a:52:64:70:02:fc:68:bf:aa
        Signature Algorithm: sha256WithRSAEncryption
        Issuer: CN=UTM_CA
        Validity
            Not Before: Dec  9 05:06:46 2024 GMT
            Not After : Mar 14 05:06:46 2027 GMT
        Subject: C=IN, ST=WestBengal, L=Kolkata, O=TLS_PROXY, OU=UTM_Service, CN=TLS_PROXY/emailAddress=vk2818970@gmail.com
        Subject Public Key Info:
            Public Key Algorithm: rsaEncryption
                Public-Key: (2048 bit)
                Modulus:
                    00:9b:2b:73:36:53:ad:d9:6c:3e:ee:fd:80:da:f5:
                    5a:23:7b:5e:91:80:a1:03:19:29:21:24:25:88:cd:
                    66:cb:c9:64:db:9b:88:af:0a:0e:9e:65:4c:ae:8c:
                    a1:46:0b:33:cf:4c:9d:82:da:21:e0:58:32:88:41:
                    b0:05:5f:40:f9:53:36:c4:4a:4e:6f:dd:b2:9c:de:
                    c9:d4:c9:41:5d:12:0f:13:bb:b7:a3:17:c5:ea:41:
                    97:59:a5:26:87:7e:a1:cf:df:fb:0e:af:37:0f:e9:
                    6d:1e:42:ce:41:92:d7:8f:cf:66:db:1e:bb:33:40:
                    77:25:bd:87:04:3f:60:3b:ce:1e:2b:30:37:32:13:
                    55:66:88:35:99:84:67:93:d2:82:de:f3:b8:b3:2a:
                    ec:9a:80:01:98:c6:47:dd:0b:bb:04:85:8b:a0:69:
                    b8:1d:da:95:1c:84:e3:67:56:78:6e:d0:9e:f6:10:
                    03:6f:75:5a:eb:e3:0a:ad:5e:71:2a:9a:45:00:31:
                    50:c7:d0:13:d5:b3:8b:05:ac:76:1a:ce:da:46:d8:
                    db:a8:61:0e:d9:7c:b2:27:ec:a2:c0:42:b8:dd:ad:
                    5e:72:03:8a:15:8c:6c:18:92:8e:ee:db:18:52:84:
                    ef:4f:2e:f6:38:dc:ea:fb:bc:22:b1:1c:71:fb:9d:
                    09:0b
                Exponent: 65537 (0x10001)
        X509v3 extensions:
            X509v3 Basic Constraints: 
                CA:FALSE
            X509v3 Subject Key Identifier: 
                62:0B:24:DB:7E:F0:9B:29:71:CF:0A:22:1B:89:42:83:42:92:F2:55
            X509v3 Authority Key Identifier: 
                keyid:25:8A:1B:46:74:71:55:94:F0:61:C8:56:77:4D:72:7F:3F:8D:69:7E
                DirName:/CN=UTM_CA
                serial:13:8D:A3:58:82:09:4A:9D:FE:1C:99:4C:90:5F:B5:8C:9A:3B:6D:EF
            X509v3 Extended Key Usage: 
                TLS Web Server Authentication
            X509v3 Key Usage: 
                Digital Signature, Key Encipherment
            X509v3 Subject Alternative Name: 
                DNS:TLS_PROXY
    Signature Algorithm: sha256WithRSAEncryption
    Signature Value:
        01:74:db:09:df:f2:2b:cc:f1:b3:72:59:65:6c:fd:05:3b:f8:
        38:64:58:6b:e6:e3:d9:03:0f:d5:92:03:39:65:97:f3:0a:d0:
        a8:a2:0c:1d:49:b4:4e:37:e0:c4:c6:64:af:31:3a:b3:88:55:
        30:b3:c4:90:29:14:cd:b1:56:e7:28:3f:f3:8a:39:ee:32:dc:
        dd:8b:5c:4f:f7:97:e5:e8:6f:57:4e:6f:38:30:d8:d9:cb:77:
        fe:7a:78:2d:db:d3:bc:63:92:c4:92:e7:4a:21:99:6d:b1:32:
        1c:5c:95:ec:b8:c5:af:67:48:25:c5:73:a6:8e:76:53:8e:a6:
        fb:53:20:a5:0f:42:e5:cc:f8:cf:4f:0f:ff:32:ed:3c:f9:de:
        23:79:89:0a:c3:16:9c:b0:7f:67:2c:4f:35:af:20:d1:7f:3f:
        26:22:4a:24:ee:5c:b6:12:71:c9:87:09:9a:36:68:6c:82:08:
        d5:f4:fa:67:14:6c:0e:87:06:5a:7d:9d:9d:80:80:2b:40:a6:
        d8:a3:98:a6:bd:9c:79:54:5d:5d:f2:3d:0d:7c:5c:bb:47:8f:
        b8:2f:83:93:8f:a1:24:5d:43:5c:c7:25:bf:93:ec:0d:a6:bc:
        b4:3c:fd:3b:76:aa:cf:3b:d7:80:55:c0:71:4f:88:56:58:38:
        e9:51:ff:93
-----BEGIN CERTIFICATE-----
MIID5zCCAs+gAwIBAgIRAL8pb8yiAAN6UmRwAvxov6owDQYJKoZIhvcNAQELBQAw
ETEPMA0GA1UEAwwGVVRNX0NBMB4XDTI0MTIwOTA1MDY0NloXDTI3MDMxNDA1MDY0
NlowgZYxCzAJBgNVBAYTAklOMRMwEQYDVQQIDApXZXN0QmVuZ2FsMRAwDgYDVQQH
DAdLb2xrYXRhMRIwEAYDVQQKDAlUTFNfUFJPWFkxFDASBgNVBAsMC1VUTV9TZXJ2
aWNlMRIwEAYDVQQDDAlUTFNfUFJPWFkxIjAgBgkqhkiG9w0BCQEWE3ZrMjgxODk3
MEBnbWFpbC5jb20wggEiMA0GCSqGSIb3DQEBAQUAA4IBDwAwggEKAoIBAQCbK3M2
U63ZbD7u/YDa9Voje16RgKEDGSkhJCWIzWbLyWTbm4ivCg6eZUyujKFGCzPPTJ2C
2iHgWDKIQbAFX0D5UzbESk5v3bKc3snUyUFdEg8Tu7ejF8XqQZdZpSaHfqHP3/sO
rzcP6W0eQs5BktePz2bbHrszQHclvYcEP2A7zh4rMDcyE1VmiDWZhGeT0oLe87iz
KuyagAGYxkfdC7sEhYugabgd2pUchONnVnhu0J72EANvdVrr4wqtXnEqmkUAMVDH
0BPVs4sFrHYaztpG2NuoYQ7ZfLIn7KLAQrjdrV5yA4oVjGwYko7u2xhShO9PLvY4
3Or7vCKxHHH7nQkLAgMBAAGjgbMwgbAwCQYDVR0TBAIwADAdBgNVHQ4EFgQUYgsk
237wmylxzwoiG4lCg0KS8lUwTAYDVR0jBEUwQ4AUJYobRnRxVZTwYchWd01yfz+N
aX6hFaQTMBExDzANBgNVBAMMBlVUTV9DQYIUE42jWIIJSp3+HJlMkF+1jJo7be8w
EwYDVR0lBAwwCgYIKwYBBQUHAwEwCwYDVR0PBAQDAgWgMBQGA1UdEQQNMAuCCVRM
U19QUk9YWTANBgkqhkiG9w0BAQsFAAOCAQEAAXTbCd/yK8zxs3JZZWz9BTv4OGRY
a+bj2QMP1ZIDOWWX8wrQqKIMHUm0TjfgxMZkrzE6s4hVMLPEkCkUzbFW5yg/84o5
7jLc3YtcT/eX5ehvV05vODDY2ct3/np4LdvTvGOSxJLnSiGZbbEyHFyV7LjFr2dI
JcVzpo52U46m+1MgpQ9C5cz4z08P/zLtPPneI3mJCsMWnLB/ZyxPNa8g0X8/JiJK
JO5cthJxyYcJmjZobIII1fT6ZxRsDocGWn2dnYCAK0Cm2KOYpr2ceVRdXfI9DXxc
u0ePuC+Dk4+hJF1DXMclv5PsDaa8tDz9O3aqzzvXgFXAcU+IVlg46VH/kw==
-----END CERTIFICATE-----
